target datalayout = "e-m:e-p270:32:32-p271:32:32-p272:64:64-i64:64-i128:128-f80:128-n8:16:32:64-S128"
target triple = "x86_64-pc-linux-gnu"

%struct.paramType = type { i32, ptr, ptr, i32 }
%class.Memory = type { %"class.std::vector", i32, %"class.std::vector.0" }
%"class.std::vector" = type { %"struct.std::_Vector_base" }
%"struct.std::_Vector_base" = type { %"struct.std::_Vector_base<ThreadData *, std::allocator<ThreadData *>>::_Vector_impl" }
%"struct.std::_Vector_base<ThreadData *, std::allocator<ThreadData *>>::_Vector_impl" = type { %"struct.std::_Vector_base<ThreadData *, std::allocator<ThreadData *>>::_Vector_impl_data" }
%"struct.std::_Vector_base<ThreadData *, std::allocator<ThreadData *>>::_Vector_impl_data" = type { ptr, ptr, ptr }
%"class.std::vector.0" = type { %"struct.std::_Vector_base.1" }
%"struct.std::_Vector_base.1" = type { %"struct.std::_Vector_base<std::__cxx11::basic_string<char>, std::allocator<std::__cxx11::basic_string<char>>>::_Vector_impl" }
%"struct.std::_Vector_base<std::__cxx11::basic_string<char>, std::allocator<std::__cxx11::basic_string<char>>>::_Vector_impl" = type { %"struct.std::_Vector_base<std::__cxx11::basic_string<char>, std::allocator<std::__cxx11::basic_string<char>>>::_Vector_impl_data" }
%"struct.std::_Vector_base<std::__cxx11::basic_string<char>, std::allocator<std::__cxx11::basic_string<char>>>::_Vector_impl_data" = type { ptr, ptr, ptr }
%struct.futureTricks = type { i32, i32, [13 x i32], [13 x i32], [13 x i32], [13 x i32] }
%struct.deal = type { i32, i32, [3 x i32], [3 x i32], [4 x [4 x i32]] }
%struct.boards = type { i32, [200 x %struct.deal], [200 x i32], [200 x i32], [200 x i32] }
%struct.solvedBoards = type { i32, [200 x %struct.futureTricks] }

@cparam = global %struct.paramType zeroinitializer, align 8
@memory = external global %class.Memory, align 8

; Function Attrs: mustprogress uwtable
define void @_Z16CalcSingleCommonii(i32 noundef %0, i32 noundef %1) #4 {
  %3 = alloca i32, align 4
  %4 = alloca i32, align 4
  %5 = alloca %struct.futureTricks, align 4
  %6 = alloca i32, align 4
  %7 = alloca %struct.deal, align 8
  %8 = alloca ptr, align 8
  %9 = alloca i32, align 4
  %10 = alloca i32, align 4
  store i32 %0, ptr %3, align 4
  store i32 %1, ptr %4, align 4
  %11 = load ptr, ptr getelementptr inbounds nuw (%struct.paramType, ptr @cparam, i32 0, i32 1), align 8
  %12 = getelementptr inbounds nuw %struct.boards, ptr %11, i32 0, i32 1
  %13 = load i32, ptr %4, align 4
  %14 = sext i32 %13 to i64
  %15 = getelementptr inbounds [200 x %struct.deal], ptr %12, i64 0, i64 %14
  %16 = getelementptr inbounds nuw %struct.deal, ptr %15, i32 0, i32 1
  store i32 0, ptr %16, align 4
  %17 = load ptr, ptr getelementptr inbounds nuw (%struct.paramType, ptr @cparam, i32 0, i32 1), align 8
  %18 = getelementptr inbounds nuw %struct.boards, ptr %17, i32 0, i32 1
  %19 = load i32, ptr %4, align 4
  %20 = sext i32 %19 to i64
  %21 = getelementptr inbounds [200 x %struct.deal], ptr %18, i64 0, i64 %20
  call void @llvm.memcpy.p0.p0.i64(ptr align 4 %7, ptr align 4 %21, i64 96, i1 false)
  %22 = load ptr, ptr getelementptr inbounds nuw (%struct.paramType, ptr @cparam, i32 0, i32 1), align 8
  %23 = getelementptr inbounds nuw %struct.boards, ptr %22, i32 0, i32 2
  %24 = load i32, ptr %4, align 4
  %25 = sext i32 %24 to i64
  %26 = getelementptr inbounds [200 x i32], ptr %23, i64 0, i64 %25
  %27 = load i32, ptr %26, align 4
  %28 = load ptr, ptr getelementptr inbounds nuw (%struct.paramType, ptr @cparam, i32 0, i32 1), align 8
  %29 = getelementptr inbounds nuw %struct.boards, ptr %28, i32 0, i32 3
  %30 = load i32, ptr %4, align 4
  %31 = sext i32 %30 to i64
  %32 = getelementptr inbounds [200 x i32], ptr %29, i64 0, i64 %31
  %33 = load i32, ptr %32, align 4
  %34 = load ptr, ptr getelementptr inbounds nuw (%struct.paramType, ptr @cparam, i32 0, i32 1), align 8
  %35 = getelementptr inbounds nuw %struct.boards, ptr %34, i32 0, i32 4
  %36 = load i32, ptr %4, align 4
  %37 = sext i32 %36 to i64
  %38 = getelementptr inbounds [200 x i32], ptr %35, i64 0, i64 %37
  %39 = load i32, ptr %38, align 4
  %40 = load i32, ptr %3, align 4
  %41 = call i32 @SolveBoard(ptr noundef byval(%struct.deal) align 8 %7, i32 noundef %27, i32 noundef %33, i32 noundef %39, ptr noundef %5, i32 noundef %40)
  store i32 %41, ptr %6, align 4
  %42 = load i32, ptr %6, align 4
  %43 = icmp eq i32 %42, 1
  br i1 %43, label %44, label %55

44:                                               ; preds = %2
  %45 = getelementptr inbounds nuw %struct.futureTricks, ptr %5, i32 0, i32 5
  %46 = getelementptr inbounds [13 x i32], ptr %45, i64 0, i64 0
  %47 = load i32, ptr %46, align 4
  %48 = load ptr, ptr getelementptr inbounds nuw (%struct.paramType, ptr @cparam, i32 0, i32 2), align 8
  %49 = getelementptr inbounds nuw %struct.solvedBoards, ptr %48, i32 0, i32 1
  %50 = load i32, ptr %4, align 4
  %51 = sext i32 %50 to i64
  %52 = getelementptr inbounds [200 x %struct.futureTricks], ptr %49, i64 0, i64 %51
  %53 = getelementptr inbounds nuw %struct.futureTricks, ptr %52, i32 0, i32 5
  %54 = getelementptr inbounds [13 x i32], ptr %53, i64 0, i64 0
  store i32 %47, ptr %54, align 4
  br label %57

55:                                               ; preds = %2
  %56 = load i32, ptr %6, align 4
  store i32 %56, ptr getelementptr inbounds nuw (%struct.paramType, ptr @cparam, i32 0, i32 3), align 8
  br label %57

57:                                               ; preds = %55, %44
  %58 = load i32, ptr %3, align 4
  %59 = call noundef ptr @_ZN6Memory6GetPtrEj(ptr noundef nonnull align 8 dereferenceable(56) @memory, i32 noundef %58)
  store ptr %59, ptr %8, align 8
  store i32 1, ptr %9, align 4
  br label %60

60:                                               ; preds = %110, %57
  %61 = load i32, ptr %9, align 4
  %62 = icmp slt i32 %61, 4
  br i1 %62, label %63, label %113

63:                                               ; preds = %60
  %64 = load i32, ptr %9, align 4
  %65 = icmp eq i32 %64, 2
  br i1 %65, label %66, label %70

66:                                               ; preds = %63
  %67 = getelementptr inbounds nuw %struct.futureTricks, ptr %5, i32 0, i32 5
  %68 = getelementptr inbounds [13 x i32], ptr %67, i64 0, i64 0
  %69 = load i32, ptr %68, align 4
  br label %75

70:                                               ; preds = %63
  %71 = getelementptr inbounds nuw %struct.futureTricks, ptr %5, i32 0, i32 5
  %72 = getelementptr inbounds [13 x i32], ptr %71, i64 0, i64 0
  %73 = load i32, ptr %72, align 4
  %74 = sub nsw i32 13, %73
  br label %75

75:                                               ; preds = %70, %66
  %76 = phi i32 [ %69, %66 ], [ %74, %70 ]
  store i32 %76, ptr %10, align 4
  %77 = load i32, ptr %9, align 4
  %78 = load ptr, ptr getelementptr inbounds nuw (%struct.paramType, ptr @cparam, i32 0, i32 1), align 8
  %79 = getelementptr inbounds nuw %struct.boards, ptr %78, i32 0, i32 1
  %80 = load i32, ptr %4, align 4
  %81 = sext i32 %80 to i64
  %82 = getelementptr inbounds [200 x %struct.deal], ptr %79, i64 0, i64 %81
  %83 = getelementptr inbounds nuw %struct.deal, ptr %82, i32 0, i32 1
  store i32 %77, ptr %83, align 4
  %84 = load ptr, ptr %8, align 8
  %85 = load ptr, ptr getelementptr inbounds nuw (%struct.paramType, ptr @cparam, i32 0, i32 1), align 8
  %86 = getelementptr inbounds nuw %struct.boards, ptr %85, i32 0, i32 1
  %87 = load i32, ptr %4, align 4
  %88 = sext i32 %87 to i64
  %89 = getelementptr inbounds [200 x %struct.deal], ptr %86, i64 0, i64 %88
  %90 = load i32, ptr %10, align 4
  %91 = call noundef i32 @_Z14SolveSameBoardP10ThreadDataRK4dealP12futureTricksi(ptr noundef %84, ptr noundef nonnull align 4 dereferenceable(96) %89, ptr noundef %5, i32 noundef %90)
  store i32 %91, ptr %6, align 4
  %92 = load i32, ptr %6, align 4
  %93 = icmp eq i32 %92, 1
  br i1 %93, label %94, label %107

94:                                               ; preds = %75
  %95 = getelementptr inbounds nuw %struct.futureTricks, ptr %5, i32 0, i32 5
  %96 = getelementptr inbounds [13 x i32], ptr %95, i64 0, i64 0
  %97 = load i32, ptr %96, align 4
  %98 = load ptr, ptr getelementptr inbounds nuw (%struct.paramType, ptr @cparam, i32 0, i32 2), align 8
  %99 = getelementptr inbounds nuw %struct.solvedBoards, ptr %98, i32 0, i32 1
  %100 = load i32, ptr %4, align 4
  %101 = sext i32 %100 to i64
  %102 = getelementptr inbounds [200 x %struct.futureTricks], ptr %99, i64 0, i64 %101
  %103 = getelementptr inbounds nuw %struct.futureTricks, ptr %102, i32 0, i32 5
  %104 = load i32, ptr %9, align 4
  %105 = sext i32 %104 to i64
  %106 = getelementptr inbounds [13 x i32], ptr %103, i64 0, i64 %105
  store i32 %97, ptr %106, align 4
  br label %109

107:                                              ; preds = %75
  %108 = load i32, ptr %6, align 4
  store i32 %108, ptr getelementptr inbounds nuw (%struct.paramType, ptr @cparam, i32 0, i32 3), align 8
  br label %109

109:                                              ; preds = %107, %94
  br label %110

110:                                              ; preds = %109
  %111 = load i32, ptr %9, align 4
  %112 = add nsw i32 %111, 1
  store i32 %112, ptr %9, align 4
  br label %60, !llvm.loop !4

113:                                              ; preds = %60
  ret void
}