; Function Attrs: mustprogress uwtable
define void @_Z16CalcSingleCommonii(i32 noundef %0, i32 noundef %1) local_unnamed_addr #3 {
  %3 = alloca %struct.futureTricks, align 4
  %4 = alloca %struct.deal, align 8
  %5 = load ptr, ptr getelementptr inbounds nuw (i8, ptr @cparam, i64 8), align 8
  %6 = sext i32 %1 to i64
  %.idx = mul nsw i64 %6, 96
  %7 = getelementptr i8, ptr %5, i64 8
  %8 = getelementptr i8, ptr %7, i64 %.idx
  store i32 0, ptr %8, align 4
  %9 = load ptr, ptr getelementptr inbounds nuw (i8, ptr @cparam, i64 8), align 8
  %10 = getelementptr inbounds nuw i8, ptr %9, i64 4
  %11 = getelementptr inbounds [200 x %struct.deal], ptr %10, i64 0, i64 %6
  call void @llvm.memcpy.p0.p0.i64(ptr noundef nonnull align 8 dereferenceable(96) %4, ptr noundef nonnull align 4 dereferenceable(96) %11, i64 96, i1 false)
  %12 = getelementptr inbounds nuw i8, ptr %9, i64 19204
  %13 = getelementptr inbounds [200 x i32], ptr %12, i64 0, i64 %6
  %14 = load i32, ptr %13, align 4
  %15 = getelementptr inbounds nuw i8, ptr %9, i64 20004
  %16 = getelementptr inbounds [200 x i32], ptr %15, i64 0, i64 %6
  %17 = load i32, ptr %16, align 4
  %18 = getelementptr inbounds nuw i8, ptr %9, i64 20804
  %19 = getelementptr inbounds [200 x i32], ptr %18, i64 0, i64 %6
  %20 = load i32, ptr %19, align 4
  %21 = call i32 @SolveBoard(ptr noundef nonnull byval(%struct.deal) align 8 %4, i32 noundef %14, i32 noundef %17, i32 noundef %20, ptr noundef nonnull %3, i32 noundef %0)
  %22 = icmp eq i32 %21, 1
  br i1 %22, label %23, label %29

23:                                               ; preds = %2
  %24 = getelementptr inbounds nuw i8, ptr %3, i64 164
  %25 = load i32, ptr %24, align 4
  %26 = load ptr, ptr getelementptr inbounds nuw (i8, ptr @cparam, i64 16), align 8
  %.idx23 = mul nsw i64 %6, 216
  %27 = getelementptr i8, ptr %26, i64 168
  %28 = getelementptr i8, ptr %27, i64 %.idx23
  store i32 %25, ptr %28, align 4
  br label %30

29:                                               ; preds = %2
  store i32 %21, ptr getelementptr inbounds nuw (i8, ptr @cparam, i64 24), align 8
  %.pre = mul nsw i64 %6, 216
  br label %30

30:                                               ; preds = %29, %23
  %.idx25.pre-phi = phi i64 [ %.pre, %29 ], [ %.idx23, %23 ]
  %31 = call noundef ptr @_ZN6Memory6GetPtrEj(ptr noundef nonnull align 8 dereferenceable(56) @memory, i32 noundef %0)
  %32 = getelementptr inbounds nuw i8, ptr %3, i64 164
  br label %33

33:                                               ; preds = %30, %54
  %indvars.iv = phi i64 [ 1, %30 ], [ %indvars.iv.next, %54 ]
  %34 = icmp eq i64 %indvars.iv, 2
  %35 = load i32, ptr %32, align 4
  %36 = sub nsw i32 13, %35
  %37 = select i1 %34, i32 %35, i32 %36
  %38 = load ptr, ptr getelementptr inbounds nuw (i8, ptr @cparam, i64 8), align 8
  %39 = getelementptr i8, ptr %38, i64 8
  %40 = getelementptr i8, ptr %39, i64 %.idx
  %41 = trunc nuw nsw i64 %indvars.iv to i32
  store i32 %41, ptr %40, align 4
  %42 = load ptr, ptr getelementptr inbounds nuw (i8, ptr @cparam, i64 8), align 8
  %43 = getelementptr inbounds nuw i8, ptr %42, i64 4
  %44 = getelementptr inbounds [200 x %struct.deal], ptr %43, i64 0, i64 %6
  %45 = call noundef i32 @_Z14SolveSameBoardP10ThreadDataRK4dealP12futureTricksi(ptr noundef %31, ptr noundef nonnull align 4 dereferenceable(96) %44, ptr noundef nonnull %3, i32 noundef %37)
  %46 = icmp eq i32 %45, 1
  br i1 %46, label %47, label %53

47:                                               ; preds = %33
  %48 = load i32, ptr %32, align 4
  %49 = load ptr, ptr getelementptr inbounds nuw (i8, ptr @cparam, i64 16), align 8
  %50 = getelementptr i8, ptr %49, i64 168
  %51 = getelementptr i8, ptr %50, i64 %.idx25.pre-phi
  %52 = getelementptr inbounds nuw [13 x i32], ptr %51, i64 0, i64 %indvars.iv
  store i32 %48, ptr %52, align 4
  br label %54

53:                                               ; preds = %33
  store i32 %45, ptr getelementptr inbounds nuw (i8, ptr @cparam, i64 24), align 8
  br label %54

54:                                               ; preds = %47, %53
  %indvars.iv.next = add nuw nsw i64 %indvars.iv, 1
  %exitcond.not = icmp eq i64 %indvars.iv.next, 4
  br i1 %exitcond.not, label %55, label %33, !llvm.loop !4

55:                                               ; preds = %54
  ret void
}